target datalayout = "e-m:e-p270:32:32-p271:32:32-p272:64:64-i64:64-i128:128-f80:128-n8:16:32:64-S128"
target triple = "x86_64-pc-linux-gnu"

%struct.AVTextFormatter = type { ptr, i32, ptr, ptr, ptr, ptr, ptr, ptr, ptr, i32 }

@registered_formatters = internal global [10 x ptr] zeroinitializer, align 16
@formatters_register_all.initialized = internal global i32 0, align 4
@avtextformatter_default = external constant %struct.AVTextFormatter, align 8
@avtextformatter_compact = external constant %struct.AVTextFormatter, align 8
@avtextformatter_csv = external constant %struct.AVTextFormatter, align 8
@avtextformatter_flat = external constant %struct.AVTextFormatter, align 8
@avtextformatter_ini = external constant %struct.AVTextFormatter, align 8
@avtextformatter_json = external constant %struct.AVTextFormatter, align 8
@avtextformatter_xml = external constant %struct.AVTextFormatter, align 8
@avtextformatter_mermaid = external constant %struct.AVTextFormatter, align 8
@avtextformatter_mermaidhtml = external constant %struct.AVTextFormatter, align 8

; Function Attrs: nounwind uwtable
define internal void @formatters_register_all() #0 {
  %1 = load i32, ptr @formatters_register_all.initialized, align 4, !tbaa !12
  %2 = icmp ne i32 %1, 0
  br i1 %2, label %3, label %4

3:                                                ; preds = %0
  br label %5

4:                                                ; preds = %0
  store i32 1, ptr @formatters_register_all.initialized, align 4, !tbaa !12
  store ptr @avtextformatter_default, ptr @registered_formatters, align 16, !tbaa !28
  store ptr @avtextformatter_compact, ptr getelementptr inbounds ([10 x ptr], ptr @registered_formatters, i64 0, i64 1), align 8, !tbaa !28
  store ptr @avtextformatter_csv, ptr getelementptr inbounds ([10 x ptr], ptr @registered_formatters, i64 0, i64 2), align 16, !tbaa !28
  store ptr @avtextformatter_flat, ptr getelementptr inbounds ([10 x ptr], ptr @registered_formatters, i64 0, i64 3), align 8, !tbaa !28
  store ptr @avtextformatter_ini, ptr getelementptr inbounds ([10 x ptr], ptr @registered_formatters, i64 0, i64 4), align 16, !tbaa !28
  store ptr @avtextformatter_json, ptr getelementptr inbounds ([10 x ptr], ptr @registered_formatters, i64 0, i64 5), align 8, !tbaa !28
  store ptr @avtextformatter_xml, ptr getelementptr inbounds ([10 x ptr], ptr @registered_formatters, i64 0, i64 6), align 16, !tbaa !28
  store ptr @avtextformatter_mermaid, ptr getelementptr inbounds ([10 x ptr], ptr @registered_formatters, i64 0, i64 7), align 8, !tbaa !28
  store ptr @avtextformatter_mermaidhtml, ptr getelementptr inbounds ([10 x ptr], ptr @registered_formatters, i64 0, i64 8), align 16, !tbaa !28
  br label %5

5:                                                ; preds = %4, %3
  ret void
}

; Function Attrs: nounwind uwtable
define ptr @avtext_get_formatter_by_name(ptr noundef %0) #0 {
  %2 = alloca ptr, align 8
  %3 = alloca ptr, align 8
  %4 = alloca i32, align 4
  %5 = alloca i32, align 4
  store ptr %0, ptr %3, align 8, !tbaa !30
  call void @formatters_register_all()
  call void @llvm.lifetime.start.p0(i64 4, ptr %4) #10
  store i32 0, ptr %4, align 4, !tbaa !12
  br label %6

6:                                                ; preds = %29, %1
  %7 = load i32, ptr %4, align 4, !tbaa !12
  %8 = sext i32 %7 to i64
  %9 = getelementptr inbounds [10 x ptr], ptr @registered_formatters, i64 0, i64 %8
  %10 = load ptr, ptr %9, align 8, !tbaa !28
  %11 = icmp ne ptr %10, null
  br i1 %11, label %13, label %12

12:                                               ; preds = %6
  store i32 2, ptr %5, align 4
  br label %32

13:                                               ; preds = %6
  %14 = load i32, ptr %4, align 4, !tbaa !12
  %15 = sext i32 %14 to i64
  %16 = getelementptr inbounds [10 x ptr], ptr @registered_formatters, i64 0, i64 %15
  %17 = load ptr, ptr %16, align 8, !tbaa !28
  %18 = getelementptr inbounds nuw %struct.AVTextFormatter, ptr %17, i32 0, i32 2
  %19 = load ptr, ptr %18, align 8, !tbaa !120
  %20 = load ptr, ptr %3, align 8, !tbaa !30
  %21 = call i32 @strcmp(ptr noundef %19, ptr noundef %20) #12
  %22 = icmp ne i32 %21, 0
  br i1 %22, label %28, label %23

23:                                               ; preds = %13
  %24 = load i32, ptr %4, align 4, !tbaa !12
  %25 = sext i32 %24 to i64
  %26 = getelementptr inbounds [10 x ptr], ptr @registered_formatters, i64 0, i64 %25
  %27 = load ptr, ptr %26, align 8, !tbaa !28
  store ptr %27, ptr %2, align 8
  store i32 1, ptr %5, align 4
  br label %32

28:                                               ; preds = %13
  br label %29

29:                                               ; preds = %28
  %30 = load i32, ptr %4, align 4, !tbaa !12
  %31 = add nsw i32 %30, 1
  store i32 %31, ptr %4, align 4, !tbaa !12
  br label %6, !llvm.loop !121

32:                                               ; preds = %23, %12
  call void @llvm.lifetime.end.p0(i64 4, ptr %4) #10
  %33 = load i32, ptr %5, align 4
  switch i32 %33, label %37 [
    i32 2, label %34
    i32 1, label %35
  ]

34:                                               ; preds = %32
  store ptr null, ptr %2, align 8
  br label %35

35:                                               ; preds = %34, %32
  %36 = load ptr, ptr %2, align 8
  ret ptr %36

37:                                               ; preds = %32
  unreachable
}