; Function Attrs: nofree norecurse nounwind memory(readwrite, argmem: read, inaccessiblemem: none) uwtable
define ptr @avtext_get_formatter_by_name(ptr noundef readonly captures(none) %0) local_unnamed_addr #8 {
  %.b.i = load i1, ptr @formatters_register_all.initialized, align 4
  br i1 %.b.i, label %formatters_register_all.exit, label %formatters_register_all.exit.thread

formatters_register_all.exit.thread:              ; preds = %1
  store i1 true, ptr @formatters_register_all.initialized, align 4
  store ptr @avtextformatter_default, ptr @registered_formatters, align 16, !tbaa !91
  store ptr @avtextformatter_compact, ptr getelementptr inbounds nuw (i8, ptr @registered_formatters, i64 8), align 8, !tbaa !91
  store ptr @avtextformatter_csv, ptr getelementptr inbounds nuw (i8, ptr @registered_formatters, i64 16), align 16, !tbaa !91
  store ptr @avtextformatter_flat, ptr getelementptr inbounds nuw (i8, ptr @registered_formatters, i64 24), align 8, !tbaa !91
  store ptr @avtextformatter_ini, ptr getelementptr inbounds nuw (i8, ptr @registered_formatters, i64 32), align 16, !tbaa !91
  store ptr @avtextformatter_json, ptr getelementptr inbounds nuw (i8, ptr @registered_formatters, i64 40), align 8, !tbaa !91
  store ptr @avtextformatter_xml, ptr getelementptr inbounds nuw (i8, ptr @registered_formatters, i64 48), align 16, !tbaa !91
  store ptr @avtextformatter_mermaid, ptr getelementptr inbounds nuw (i8, ptr @registered_formatters, i64 56), align 8, !tbaa !91
  store ptr @avtextformatter_mermaidhtml, ptr getelementptr inbounds nuw (i8, ptr @registered_formatters, i64 64), align 16, !tbaa !91
  br label %.lr.ph.preheader

formatters_register_all.exit:                     ; preds = %1
  %.pre = load ptr, ptr @registered_formatters, align 16, !tbaa !91
  %.not10 = icmp eq ptr %.pre, null
  br i1 %.not10, label %._crit_edge, label %.lr.ph.preheader

.lr.ph.preheader:                                 ; preds = %formatters_register_all.exit.thread, %formatters_register_all.exit
  %.ph = phi ptr [ %.pre, %formatters_register_all.exit ], [ @avtextformatter_default, %formatters_register_all.exit.thread ]
  br label %.lr.ph

2:                                                ; preds = %.lr.ph
  %indvars.iv.next = add nuw nsw i64 %indvars.iv, 1
  %3 = getelementptr inbounds nuw [10 x ptr], ptr @registered_formatters, i64 0, i64 %indvars.iv.next
  %4 = load ptr, ptr %3, align 8, !tbaa !91
  %.not = icmp eq ptr %4, null
  br i1 %.not, label %._crit_edge, label %.lr.ph, !llvm.loop !92

.lr.ph:                                           ; preds = %.lr.ph.preheader, %2
  %indvars.iv = phi i64 [ %indvars.iv.next, %2 ], [ 0, %.lr.ph.preheader ]
  %5 = phi ptr [ %4, %2 ], [ %.ph, %.lr.ph.preheader ]
  %6 = getelementptr inbounds nuw i8, ptr %5, i64 16
  %7 = load ptr, ptr %6, align 8, !tbaa !93
  %8 = tail call i32 @strcmp(ptr noundef nonnull dereferenceable(1) %7, ptr noundef nonnull dereferenceable(1) %0) #14
  %.not9 = icmp eq i32 %8, 0
  br i1 %.not9, label %._crit_edge, label %2

._crit_edge:                                      ; preds = %2, %.lr.ph, %formatters_register_all.exit
  %.lcssa = phi ptr [ null, %formatters_register_all.exit ], [ %5, %.lr.ph ], [ null, %2 ]
  ret ptr %.lcssa
}